Certificate:
    Data:
        Version: 3 (0x2)
        Serial Number: 1 (0x1)
        Signature Algorithm: sha1WithRSAEncryption
        Issuer: DC=org, DC=eumel-suite, O=EUMEL Suite, OU=EUMEL Suite Root, CN=EUMEL Suite Root CA
        Validity
            Not Before: Jun  3 11:35:50 2021 GMT
            Not After : Jun  3 11:35:50 2031 GMT
        Subject: DC=org, DC=eumel-suite, O=EUMEL Suite, OU=EUMEL Suite Root, CN=EUMEL Suite Root CA
        Subject Public Key Info:
            Public Key Algorithm: rsaEncryption
                RSA Public-Key: (2048 bit)
                Modulus:
                    00:bb:8d:a3:e3:65:17:b0:35:19:50:fa:55:c2:05:
                    e9:1e:1b:fb:33:cb:64:c2:34:46:a6:3d:3c:cb:d4:
                    b6:90:e3:3c:de:61:3c:39:1e:05:de:77:3c:83:e8:
                    5e:83:09:33:b3:04:54:7f:91:b6:3b:b9:e4:1f:ad:
                    92:76:35:92:46:17:4b:ff:f0:72:7e:0f:c3:5e:0b:
                    e7:ce:aa:9d:ba:10:8b:22:f7:cc:b2:f7:c0:0f:00:
                    c9:64:36:c1:d1:b0:0c:db:56:6e:85:0a:8c:44:25:
                    c9:1b:29:43:af:85:86:47:f3:37:88:2f:96:69:55:
                    b0:37:b2:7d:99:b1:d1:c6:3a:ea:84:23:0b:9b:0a:
                    a0:b5:7f:22:83:71:d9:03:88:06:38:ab:9d:13:5c:
                    dd:74:31:5e:c4:cd:66:af:1d:c4:6e:45:7e:b0:c2:
                    cd:6e:bb:ec:be:8f:7a:70:71:ff:9c:0a:12:64:d9:
                    f6:04:58:87:87:22:79:8e:74:96:2e:b0:2b:7a:1c:
                    ea:d0:bd:05:75:49:c0:ef:ec:bd:54:3c:05:7a:52:
                    09:60:4a:c0:43:34:7f:57:56:93:96:f6:b8:94:71:
                    b7:c1:75:bb:2f:46:ed:29:22:8c:7e:ca:ea:4a:45:
                    af:da:86:de:5c:80:97:36:aa:1d:ec:bb:6a:37:47:
                    4d:71
                Exponent: 65537 (0x10001)
        X509v3 extensions:
            X509v3 Key Usage: critical
                Certificate Sign, CRL Sign
            X509v3 Basic Constraints: critical
                CA:TRUE
            X509v3 Subject Key Identifier: 
                8A:9E:64:D6:64:5A:A7:4F:BB:CE:80:18:C7:11:67:15:3A:56:0F:6C
            X509v3 Authority Key Identifier: 
                keyid:8A:9E:64:D6:64:5A:A7:4F:BB:CE:80:18:C7:11:67:15:3A:56:0F:6C

    Signature Algorithm: sha1WithRSAEncryption
         6d:ee:69:84:af:20:16:e1:58:38:79:bc:f6:a8:e8:de:05:18:
         87:0d:9a:a7:f4:77:5a:24:ee:b3:81:87:94:f4:e6:70:63:c2:
         6d:e1:38:2a:f1:01:42:bc:99:16:7b:28:39:dd:6a:bb:33:62:
         09:c1:b8:01:43:48:e2:be:fb:1a:a6:ee:26:67:38:ee:dc:9a:
         5e:a9:c7:82:b6:dd:a4:36:da:12:dd:eb:b4:14:fd:1f:25:8e:
         96:65:6f:7c:cc:e3:03:cb:4a:74:ba:55:18:5a:3e:14:5b:30:
         73:6d:b9:ec:9f:47:e0:11:53:2e:2e:d2:91:bd:e3:70:bd:af:
         df:05:47:48:ea:6d:68:6d:e0:cb:e9:28:9c:48:f5:f1:3d:39:
         22:6b:a6:9f:8e:c6:55:43:26:ea:70:1d:b7:c2:3f:17:eb:36:
         97:48:7a:1c:6b:b2:57:12:0c:73:97:e9:13:5e:5f:d9:7a:cc:
         7a:55:aa:c1:9d:e4:ba:c0:3d:cf:f5:64:19:f4:55:15:44:e8:
         15:10:44:9e:a4:61:8b:1d:bb:d3:63:46:13:f3:53:d4:46:42:
         e6:f0:ef:fe:ac:dd:97:a3:21:e8:1c:2b:a4:bf:14:1f:8f:e5:
         da:5d:cc:d5:34:12:3f:83:2c:57:86:62:ec:be:8c:78:15:6d:
         72:e4:a4:2d
-----BEGIN CERTIFICATE-----
MIID4jCCAsqgAwIBAgIBATANBgkqhkiG9w0BAQUFADCBgTETMBEGCgmSJomT8ixk
ARkWA29yZzEbMBkGCgmSJomT8ixkARkWC2V1bWVsLXN1aXRlMRQwEgYDVQQKDAtF
VU1FTCBTdWl0ZTEZMBcGA1UECwwQRVVNRUwgU3VpdGUgUm9vdDEcMBoGA1UEAwwT
RVVNRUwgU3VpdGUgUm9vdCBDQTAeFw0yMTA2MDMxMTM1NTBaFw0zMTA2MDMxMTM1
NTBaMIGBMRMwEQYKCZImiZPyLGQBGRYDb3JnMRswGQYKCZImiZPyLGQBGRYLZXVt
ZWwtc3VpdGUxFDASBgNVBAoMC0VVTUVMIFN1aXRlMRkwFwYDVQQLDBBFVU1FTCBT
dWl0ZSBSb290MRwwGgYDVQQDDBNFVU1FTCBTdWl0ZSBSb290IENBMIIBIjANBgkq
hkiG9w0BAQEFAAOCAQ8AMIIBCgKCAQEAu42j42UXsDUZUPpVwgXpHhv7M8tkwjRG
pj08y9S2kOM83mE8OR4F3nc8g+hegwkzswRUf5G2O7nkH62SdjWSRhdL//Byfg/D
XgvnzqqduhCLIvfMsvfADwDJZDbB0bAM21ZuhQqMRCXJGylDr4WGR/M3iC+WaVWw
N7J9mbHRxjrqhCMLmwqgtX8ig3HZA4gGOKudE1zddDFexM1mrx3EbkV+sMLNbrvs
vo96cHH/nAoSZNn2BFiHhyJ5jnSWLrArehzq0L0FdUnA7+y9VDwFelIJYErAQzR/
V1aTlva4lHG3wXW7L0btKSKMfsrqSkWv2obeXICXNqod7LtqN0dNcQIDAQABo2Mw
YTAOBgNVHQ8BAf8EBAMCAQYwDwYDVR0TAQH/BAUwAwEB/zAdBgNVHQ4EFgQUip5k
1mRap0+7zoAYxxFnFTpWD2wwHwYDVR0jBBgwFoAUip5k1mRap0+7zoAYxxFnFTpW
D2wwDQYJKoZIhvcNAQEFBQADggEBAG3uaYSvIBbhWDh5vPao6N4FGIcNmqf0d1ok
7rOBh5T05nBjwm3hOCrxAUK8mRZ7KDndarszYgnBuAFDSOK++xqm7iZnOO7cml6p
x4K23aQ22hLd67QU/R8ljpZlb3zM4wPLSnS6VRhaPhRbMHNtueyfR+ARUy4u0pG9
43C9r98FR0jqbWht4MvpKJxI9fE9OSJrpp+OxlVDJupwHbfCPxfrNpdIehxrslcS
DHOX6RNeX9l6zHpVqsGd5LrAPc/1ZBn0VRVE6BUQRJ6kYYsdu9NjRhPzU9RGQubw
7/6s3ZejIegcK6S/FB+P5dpdzNU0Ej+DLFeGYuy+jHgVbXLkpC0=
-----END CERTIFICATE-----
