Certificate:
    Data:
        Version: 3 (0x2)
        Serial Number: 2 (0x2)
        Signature Algorithm: sha1WithRSAEncryption
        Issuer: C=DE, O=EUMEL Suite, OU=EUMEL Suite, CN=EUMEL Suite Root CA
        Validity
            Not Before: Jun 25 14:25:29 2021 GMT
            Not After : Dec 31 23:59:59 2030 GMT
        Subject: C=DE, O=EUMEL Suite, OU=EUMEL Suite, CN=EUMEL Suite Root CA
        Subject Public Key Info:
            Public Key Algorithm: rsaEncryption
                RSA Public-Key: (4096 bit)
                Modulus:
                    00:a4:c3:df:64:61:9f:64:d7:d2:3c:c2:dc:ca:29:
                    6a:9b:24:81:e7:07:78:03:7e:de:95:d0:8a:73:ac:
                    d8:1f:02:83:d6:b6:89:60:01:e6:0d:a8:b9:df:38:
                    40:cc:aa:d2:b5:5b:5a:c5:cc:8a:50:ee:80:bf:64:
                    9d:a1:15:b0:39:16:bd:d2:39:73:20:5c:3d:d3:bc:
                    61:be:4b:68:e4:50:ce:f9:c8:a7:d4:d5:44:a5:50:
                    07:0f:75:51:1e:bf:df:08:b3:dc:31:df:5c:ba:2e:
                    e0:5e:1f:a1:d4:6e:3c:13:5a:69:07:f3:41:27:51:
                    40:08:99:67:e2:0b:a6:98:bd:be:b6:3d:9f:e3:de:
                    b3:14:f9:e9:bc:22:20:05:e4:e1:60:24:4f:e7:0b:
                    12:fc:91:84:71:88:95:4d:7f:5c:2f:a0:0a:70:e0:
                    6a:f2:64:16:8b:b7:a2:4f:63:20:03:9c:d6:f3:ef:
                    3c:d8:98:63:2e:82:27:83:3d:52:3b:ed:3f:08:23:
                    a4:d7:15:76:be:1d:4a:16:8c:bb:4f:9c:15:97:23:
                    bf:d3:45:77:10:28:04:ca:4a:1a:33:40:49:fe:f2:
                    41:a4:17:14:6c:47:98:34:74:d2:2d:a6:de:cb:0a:
                    20:b7:69:10:6d:ec:19:d8:d1:14:8c:9a:8a:57:9f:
                    72:ab:7e:ef:02:0c:2b:b2:f9:1f:8c:53:7b:b9:ba:
                    6e:33:1a:23:41:d8:1a:19:91:8e:2d:f1:2b:f9:d7:
                    3d:f3:ed:9f:fe:4c:85:88:b7:8f:88:69:64:11:5d:
                    33:a1:7e:a2:f5:51:bc:8f:a6:af:4b:63:c3:0b:d5:
                    fb:23:81:20:13:25:08:17:26:e7:7d:5e:de:94:f9:
                    1f:0d:56:bd:6e:81:66:21:34:1d:10:a3:49:8b:59:
                    b2:ce:d5:d1:c8:6b:5b:f0:bb:ae:d1:50:a0:2f:86:
                    99:b7:54:fc:93:b8:de:07:b6:c3:01:c9:1b:2b:23:
                    89:c4:4a:ae:ee:8c:23:a7:e3:a3:64:1c:58:c6:4f:
                    5c:5b:ca:f4:90:0d:89:7b:a0:0d:3a:a0:b8:76:47:
                    3c:3c:97:7d:dd:bf:37:62:f0:cd:cb:2d:24:60:5a:
                    a0:8e:aa:de:ed:f9:07:4b:65:1c:68:e7:65:1d:70:
                    d4:4f:d9:2c:d8:17:1b:fc:e5:e2:49:12:c9:17:bc:
                    bf:0e:33:d4:f3:a3:9f:44:97:0c:a6:e6:d8:db:9a:
                    1c:80:63:cd:d3:f9:4b:64:64:2e:b0:15:6d:6d:f6:
                    53:74:66:84:02:60:f6:91:9f:d1:13:89:c4:e0:57:
                    20:18:c2:7b:53:3c:fa:15:f0:fe:5a:8f:25:49:c6:
                    3f:52:11
                Exponent: 65537 (0x10001)
        X509v3 extensions:
            X509v3 Key Usage: critical
                Digital Signature, Certificate Sign, CRL Sign
            X509v3 Basic Constraints: critical
                CA:TRUE
            X509v3 Subject Key Identifier: 
                DD:9B:4D:C6:C8:B2:99:0A:E6:E8:6C:2A:9B:F2:2C:8D:28:44:D0:3A
            X509v3 Authority Key Identifier: 
                keyid:DD:9B:4D:C6:C8:B2:99:0A:E6:E8:6C:2A:9B:F2:2C:8D:28:44:D0:3A

    Signature Algorithm: sha1WithRSAEncryption
         8e:85:ee:e1:a2:dc:df:b9:e9:e9:f7:78:6e:e6:a7:26:2f:1f:
         96:a4:75:48:4d:a6:15:be:42:72:d5:b2:b3:fd:da:1c:d0:bd:
         2d:14:ad:b6:68:a9:07:94:41:26:a1:c0:22:9c:95:c2:b5:fc:
         f7:64:bf:4e:4f:5b:02:75:89:ca:ec:d9:5d:59:2b:f9:80:6c:
         13:3e:05:68:2f:cc:eb:9f:11:3a:f1:5d:41:bb:45:8e:ed:37:
         7c:8f:c3:24:a1:d3:da:e7:a0:27:8b:e2:70:af:5b:80:18:f3:
         c7:72:e9:ba:b2:d4:55:fd:18:75:d0:98:3c:12:9d:32:7a:6e:
         25:70:bf:dd:13:25:9e:dd:3e:d3:4a:a9:fc:af:f8:54:a4:f9:
         cf:e8:37:9a:9e:bc:f1:5d:66:e2:bb:f1:b2:14:d3:d9:96:f4:
         76:1e:ac:d2:83:61:cd:df:4b:0b:93:80:d2:8e:35:90:fe:fc:
         0c:2a:3a:21:f8:bd:8f:2b:25:3c:71:0e:47:8d:89:85:cd:8d:
         0f:bf:9a:17:61:4a:52:62:5d:21:61:1d:ec:b0:6f:15:c6:01:
         e5:43:e3:ab:27:a6:bc:1a:a6:06:0c:12:e6:6f:b7:5c:21:02:
         80:20:70:f3:53:1d:47:3d:08:5b:8b:d1:89:44:be:48:8d:11:
         50:fb:40:07:6b:a9:18:f0:f9:56:8e:08:e4:f7:77:c1:2b:56:
         9f:3b:19:08:8e:dc:0c:d4:8a:09:98:58:f1:2e:6c:b1:bc:60:
         60:ce:2c:31:86:f3:3f:07:62:42:03:8c:6e:73:5f:65:e3:09:
         49:15:24:1f:eb:3b:fe:e5:b3:97:44:af:09:0d:34:42:13:86:
         6c:a2:a2:0a:32:59:58:a6:97:81:51:06:1c:16:b1:ee:7f:da:
         aa:57:20:a1:d1:ac:6b:1f:c3:08:6a:1e:50:86:32:25:af:8b:
         0f:5b:05:64:63:34:cd:1e:ab:d3:28:cf:ad:53:34:f1:1a:0a:
         cc:8e:19:a9:09:d5:9f:f2:ec:c0:b0:c2:42:6d:de:76:ea:bc:
         30:55:e5:71:bd:57:85:9c:b7:3a:e0:86:d5:dc:8a:ee:d2:43:
         91:63:90:b9:e8:90:86:ce:23:e8:d5:bd:77:84:92:66:74:f3:
         e7:6b:a4:73:17:a4:6c:74:e9:63:d1:f3:eb:52:80:85:0b:6d:
         14:10:1f:1f:cb:1c:0b:23:23:69:87:11:89:45:c0:31:8c:2b:
         61:28:65:7b:a3:d4:e2:14:b1:05:2b:23:8e:b4:93:bf:74:88:
         ad:60:fe:e7:41:3b:7d:76:97:4b:a7:cd:d9:61:24:d3:ab:dc:
         75:c4:10:df:e0:39:63:76
-----BEGIN CERTIFICATE-----
MIIFjDCCA3SgAwIBAgIBAjANBgkqhkiG9w0BAQUFADBXMQswCQYDVQQGEwJERTEU
MBIGA1UECgwLRVVNRUwgU3VpdGUxFDASBgNVBAsMC0VVTUVMIFN1aXRlMRwwGgYD
VQQDDBNFVU1FTCBTdWl0ZSBSb290IENBMB4XDTIxMDYyNTE0MjUyOVoXDTMwMTIz
MTIzNTk1OVowVzELMAkGA1UEBhMCREUxFDASBgNVBAoMC0VVTUVMIFN1aXRlMRQw
EgYDVQQLDAtFVU1FTCBTdWl0ZTEcMBoGA1UEAwwTRVVNRUwgU3VpdGUgUm9vdCBD
QTCCAiIwDQYJKoZIhvcNAQEBBQADggIPADCCAgoCggIBAKTD32Rhn2TX0jzC3Mop
apskgecHeAN+3pXQinOs2B8Cg9a2iWAB5g2oud84QMyq0rVbWsXMilDugL9knaEV
sDkWvdI5cyBcPdO8Yb5LaORQzvnIp9TVRKVQBw91UR6/3wiz3DHfXLou4F4fodRu
PBNaaQfzQSdRQAiZZ+ILppi9vrY9n+PesxT56bwiIAXk4WAkT+cLEvyRhHGIlU1/
XC+gCnDgavJkFou3ok9jIAOc1vPvPNiYYy6CJ4M9UjvtPwgjpNcVdr4dShaMu0+c
FZcjv9NFdxAoBMpKGjNASf7yQaQXFGxHmDR00i2m3ssKILdpEG3sGdjRFIyailef
cqt+7wIMK7L5H4xTe7m6bjMaI0HYGhmRji3xK/nXPfPtn/5MhYi3j4hpZBFdM6F+
ovVRvI+mr0tjwwvV+yOBIBMlCBcm531e3pT5Hw1WvW6BZiE0HRCjSYtZss7V0chr
W/C7rtFQoC+GmbdU/JO43ge2wwHJGysjicRKru6MI6fjo2QcWMZPXFvK9JANiXug
DTqguHZHPDyXfd2/N2LwzcstJGBaoI6q3u35B0tlHGjnZR1w1E/ZLNgXG/zl4kkS
yRe8vw4z1POjn0SXDKbm2NuaHIBjzdP5S2RkLrAVbW32U3RmhAJg9pGf0ROJxOBX
IBjCe1M8+hXw/lqPJUnGP1IRAgMBAAGjYzBhMA4GA1UdDwEB/wQEAwIBhjAPBgNV
HRMBAf8EBTADAQH/MB0GA1UdDgQWBBTdm03GyLKZCubobCqb8iyNKETQOjAfBgNV
HSMEGDAWgBTdm03GyLKZCubobCqb8iyNKETQOjANBgkqhkiG9w0BAQUFAAOCAgEA
joXu4aLc37np6fd4buanJi8flqR1SE2mFb5CctWys/3aHNC9LRSttmipB5RBJqHA
IpyVwrX892S/Tk9bAnWJyuzZXVkr+YBsEz4FaC/M658ROvFdQbtFju03fI/DJKHT
2uegJ4vicK9bgBjzx3LpurLUVf0YddCYPBKdMnpuJXC/3RMlnt0+00qp/K/4VKT5
z+g3mp688V1m4rvxshTT2Zb0dh6s0oNhzd9LC5OA0o41kP78DCo6Ifi9jyslPHEO
R42Jhc2ND7+aF2FKUmJdIWEd7LBvFcYB5UPjqyemvBqmBgwS5m+3XCECgCBw81Md
Rz0IW4vRiUS+SI0RUPtAB2upGPD5Vo4I5Pd3wStWnzsZCI7cDNSKCZhY8S5ssbxg
YM4sMYbzPwdiQgOMbnNfZeMJSRUkH+s7/uWzl0SvCQ00QhOGbKKiCjJZWKaXgVEG
HBax7n/aqlcgodGsax/DCGoeUIYyJa+LD1sFZGM0zR6r0yjPrVM08RoKzI4ZqQnV
n/LswLDCQm3eduq8MFXlcb1XhZy3OuCG1dyK7tJDkWOQueiQhs4j6NW9d4SSZnTz
52ukcxekbHTpY9Hz61KAhQttFBAfH8scCyMjaYcRiUXAMYwrYShle6PU4hSxBSsj
jrSTv3SIrWD+50E7fXaXS6fN2WEk06vcdcQQ3+A5Y3Y=
-----END CERTIFICATE-----
