Certificate:
    Data:
        Version: 3 (0x2)
        Serial Number: 4 (0x4)
        Signature Algorithm: sha1WithRSAEncryption
        Issuer: C=DE, O=EUMEL Suite, OU=EUMEL Suite, CN=EUMEL Suite Root CA
        Validity
            Not Before: Jun 25 14:53:40 2021 GMT
            Not After : Jun 25 14:53:40 2031 GMT
        Subject: C=DE, O=EUMEL Suite, OU=EUMEL Email Categorizer, CN=EUMEL Email Categorizer CA
        Subject Public Key Info:
            Public Key Algorithm: rsaEncryption
                RSA Public-Key: (4096 bit)
                Modulus:
                    00:e5:d3:8c:8e:59:ce:dc:5b:3d:78:05:6e:98:8d:
                    aa:ac:29:b3:9a:e7:16:9c:f1:f1:14:86:e7:d6:65:
                    fd:e2:5f:b9:50:a9:47:b8:b6:dc:7d:eb:b9:32:0c:
                    9d:6b:90:a5:81:c5:81:1c:4c:65:78:47:74:b0:c9:
                    ef:ac:82:21:3d:58:65:6c:07:e7:bd:3c:78:59:0a:
                    a0:b4:b2:17:60:0c:b5:b2:f5:fe:70:d3:94:6d:9a:
                    8b:f2:4e:80:e2:58:a9:8a:70:27:dd:26:fd:7c:e1:
                    0b:35:c5:f8:12:8d:7d:0f:06:e5:c7:7e:c8:a1:f1:
                    e9:02:d0:f7:c9:c1:53:d6:d2:e9:b1:f0:b4:9d:40:
                    73:53:13:b1:e8:fa:a9:d9:81:db:d3:90:c5:97:86:
                    66:63:48:f9:0a:c6:29:4e:80:d8:99:8e:e0:c3:8f:
                    d3:44:27:28:bc:b8:96:0c:9b:31:f2:a1:bc:45:db:
                    0c:fa:0a:38:1d:e8:8c:c6:ba:c6:ce:d7:de:b8:4b:
                    fe:57:fa:02:b4:c2:69:cd:16:42:ce:22:26:f3:6d:
                    a9:16:21:e4:6c:4c:1e:6d:a7:c0:4e:d4:80:42:4f:
                    50:a3:31:25:de:8d:99:00:fa:3e:03:cc:21:46:ef:
                    a9:8d:41:3a:b5:90:22:68:94:44:40:1c:8d:ef:e7:
                    25:af:f3:22:75:10:a5:be:f4:c3:da:ff:8e:6f:98:
                    21:0a:08:d3:42:bd:a0:6a:e3:e6:2c:b0:eb:e3:dc:
                    5c:7d:32:a4:30:b0:2d:2d:0a:42:d9:35:29:83:ba:
                    73:5c:56:89:fa:f9:43:24:7e:79:3a:4c:95:12:32:
                    45:18:dc:0f:cc:59:15:e4:a9:93:26:da:eb:ef:8a:
                    aa:a8:5d:42:a9:53:6e:cc:24:84:71:b6:57:21:4c:
                    cf:23:d1:2b:89:32:35:a4:87:a8:2b:58:f0:f6:45:
                    41:80:08:34:a2:20:79:90:29:83:44:28:16:dc:01:
                    9a:1d:61:8b:17:36:96:db:5c:d1:19:3b:3b:71:ce:
                    5a:ec:e9:a7:b3:51:18:07:ff:15:f2:6a:f6:25:6d:
                    6e:47:47:f6:6a:49:5d:b8:05:0b:67:9f:68:32:c8:
                    97:93:d2:03:11:1b:94:7c:47:9c:34:90:bf:3e:b4:
                    66:ca:9c:db:7e:9d:2f:fa:df:53:d5:b9:10:0a:58:
                    ca:97:f0:29:c2:8f:0b:a0:8d:cf:0f:b6:36:67:2a:
                    ac:9b:02:f8:b6:f1:55:4e:43:a8:9f:1f:56:89:3e:
                    c3:e5:60:67:ce:39:bc:80:19:32:6a:21:8b:f9:92:
                    a2:40:d8:de:fd:4a:ca:a1:2d:62:88:04:68:fe:7d:
                    bd:c9:af
                Exponent: 65537 (0x10001)
        X509v3 extensions:
            X509v3 Key Usage: critical
                Digital Signature, Certificate Sign, CRL Sign
            X509v3 Basic Constraints: critical
                CA:TRUE, pathlen:0
            X509v3 Subject Key Identifier: 
                1F:F8:2A:6A:D4:8B:38:3B:60:52:07:55:19:C5:FB:39:94:C7:34:45
            X509v3 Authority Key Identifier: 
                keyid:DD:9B:4D:C6:C8:B2:99:0A:E6:E8:6C:2A:9B:F2:2C:8D:28:44:D0:3A

            Authority Information Access: 
                CA Issuers - URI:https://eumel-suite.github.io/ca/eumel-root-ca.crt

            X509v3 CRL Distribution Points: 

                Full Name:
                  URI:https://eumel-suite.github.io/ca/eumel-root-ca.crl

    Signature Algorithm: sha1WithRSAEncryption
         9c:d1:2b:d8:2e:5f:b8:c4:fa:9f:fd:2d:76:50:f5:39:a9:7e:
         2e:95:13:53:bc:29:d9:01:43:88:9a:8e:fb:3e:4b:e8:8c:2d:
         67:45:94:08:f2:13:a7:09:dc:ad:f3:a2:ad:cf:15:2a:59:3f:
         81:c5:e1:ff:f3:8e:a7:50:3d:f5:4d:f8:cd:ab:0b:66:4f:8c:
         cd:53:78:64:00:8d:c3:54:06:1a:b0:d2:17:e6:5e:cb:19:fd:
         5f:5c:6d:b8:f4:29:70:6f:36:44:3c:f8:b3:70:ca:e2:7b:5a:
         9e:15:90:43:02:02:c8:0e:e9:0e:91:6b:c9:2a:a8:1d:a3:54:
         e5:b7:cc:5a:26:bd:78:df:c5:a3:f0:ac:15:d1:a3:a0:bd:13:
         7c:82:e9:ac:7d:7f:39:d5:ae:92:e0:60:e9:e4:ff:e7:1e:9e:
         b2:66:b8:a7:c4:cf:fd:7f:0d:fc:fb:69:37:f2:2e:e4:98:ed:
         7d:34:6e:70:f7:8a:42:e6:52:ba:a9:a9:bd:b7:1c:cb:aa:95:
         d6:da:95:58:c4:73:9f:7a:d3:ac:49:fc:bc:c5:d4:b7:e5:0c:
         ac:48:8d:1f:5b:19:28:5d:ae:6c:63:d7:28:fc:ef:d5:f9:f2:
         66:6d:df:3b:bc:c0:4f:2a:b8:3b:67:5c:10:b0:1f:1b:7c:8b:
         89:e1:ae:cc:6f:33:a2:30:53:21:2d:cc:17:6e:a0:c4:58:72:
         06:a6:9f:32:1d:14:d2:b4:40:56:09:01:4a:e1:e1:9e:53:35:
         0c:1f:36:1e:ed:4c:1f:92:f7:80:da:41:92:63:b3:2f:8a:a7:
         ba:21:61:a1:58:64:31:0d:9b:2a:c3:19:29:9d:97:1f:63:df:
         24:37:40:25:73:fe:cb:71:fa:2e:82:a1:6b:13:dd:1c:db:65:
         f8:d6:ad:2e:49:e7:c5:db:a1:c5:27:66:de:37:63:91:fe:b1:
         d0:84:52:fa:83:ee:a4:b8:76:21:23:40:8b:d4:9c:32:c9:6c:
         1b:3e:c1:ac:3c:04:0c:79:72:b0:a3:0d:e2:15:af:fe:7f:37:
         f8:20:6a:f8:05:1e:20:14:08:bb:72:01:39:39:15:c4:69:c5:
         1d:d5:9e:29:d2:fe:d7:f2:28:70:17:10:38:0c:7d:1e:ce:e9:
         90:e9:33:13:5e:25:98:96:9b:53:c0:d5:23:f7:47:4f:5f:21:
         9e:26:35:3f:7a:33:89:f9:aa:65:0d:09:c8:2f:e9:ee:7b:4a:
         3c:57:c9:50:39:0d:6b:91:30:51:f8:58:c4:0c:9b:87:c7:ba:
         fa:00:c2:dd:04:c8:19:28:fb:b3:e2:9b:70:6e:ac:cc:3f:50:
         18:0a:a3:b1:a9:b7:68:dd
-----BEGIN CERTIFICATE-----
MIIGOTCCBCGgAwIBAgIBBDANBgkqhkiG9w0BAQUFADBXMQswCQYDVQQGEwJERTEU
MBIGA1UECgwLRVVNRUwgU3VpdGUxFDASBgNVBAsMC0VVTUVMIFN1aXRlMRwwGgYD
VQQDDBNFVU1FTCBTdWl0ZSBSb290IENBMB4XDTIxMDYyNTE0NTM0MFoXDTMxMDYy
NTE0NTM0MFowajELMAkGA1UEBhMCREUxFDASBgNVBAoMC0VVTUVMIFN1aXRlMSAw
HgYDVQQLDBdFVU1FTCBFbWFpbCBDYXRlZ29yaXplcjEjMCEGA1UEAwwaRVVNRUwg
RW1haWwgQ2F0ZWdvcml6ZXIgQ0EwggIiMA0GCSqGSIb3DQEBAQUAA4ICDwAwggIK
AoICAQDl04yOWc7cWz14BW6YjaqsKbOa5xac8fEUhufWZf3iX7lQqUe4ttx967ky
DJ1rkKWBxYEcTGV4R3Swye+sgiE9WGVsB+e9PHhZCqC0shdgDLWy9f5w05Rtmovy
ToDiWKmKcCfdJv184Qs1xfgSjX0PBuXHfsih8ekC0PfJwVPW0umx8LSdQHNTE7Ho
+qnZgdvTkMWXhmZjSPkKxilOgNiZjuDDj9NEJyi8uJYMmzHyobxF2wz6Cjgd6IzG
usbO1964S/5X+gK0wmnNFkLOIibzbakWIeRsTB5tp8BO1IBCT1CjMSXejZkA+j4D
zCFG76mNQTq1kCJolERAHI3v5yWv8yJ1EKW+9MPa/45vmCEKCNNCvaBq4+YssOvj
3Fx9MqQwsC0tCkLZNSmDunNcVon6+UMkfnk6TJUSMkUY3A/MWRXkqZMm2uvviqqo
XUKpU27MJIRxtlchTM8j0SuJMjWkh6grWPD2RUGACDSiIHmQKYNEKBbcAZodYYsX
NpbbXNEZOztxzlrs6aezURgH/xXyavYlbW5HR/ZqSV24BQtnn2gyyJeT0gMRG5R8
R5w0kL8+tGbKnNt+nS/631PVuRAKWMqX8CnCjwugjc8PtjZnKqybAvi28VVOQ6if
H1aJPsPlYGfOObyAGTJqIYv5kqJA2N79SsqhLWKIBGj+fb3JrwIDAQABo4H8MIH5
MA4GA1UdDwEB/wQEAwIBhjASBgNVHRMBAf8ECDAGAQH/AgEAMB0GA1UdDgQWBBQf
+Cpq1Is4O2BSB1UZxfs5lMc0RTAfBgNVHSMEGDAWgBTdm03GyLKZCubobCqb8iyN
KETQOjBOBggrBgEFBQcBAQRCMEAwPgYIKwYBBQUHMAKGMmh0dHBzOi8vZXVtZWwt
c3VpdGUuZ2l0aHViLmlvL2NhL2V1bWVsLXJvb3QtY2EuY3J0MEMGA1UdHwQ8MDow
OKA2oDSGMmh0dHBzOi8vZXVtZWwtc3VpdGUuZ2l0aHViLmlvL2NhL2V1bWVsLXJv
b3QtY2EuY3JsMA0GCSqGSIb3DQEBBQUAA4ICAQCc0SvYLl+4xPqf/S12UPU5qX4u
lRNTvCnZAUOImo77PkvojC1nRZQI8hOnCdyt86KtzxUqWT+BxeH/846nUD31TfjN
qwtmT4zNU3hkAI3DVAYasNIX5l7LGf1fXG249ClwbzZEPPizcMrie1qeFZBDAgLI
DukOkWvJKqgdo1Tlt8xaJr1438Wj8KwV0aOgvRN8gumsfX851a6S4GDp5P/nHp6y
ZrinxM/9fw38+2k38i7kmO19NG5w94pC5lK6qam9txzLqpXW2pVYxHOfetOsSfy8
xdS35QysSI0fWxkoXa5sY9co/O/V+fJmbd87vMBPKrg7Z1wQsB8bfIuJ4a7MbzOi
MFMhLcwXbqDEWHIGpp8yHRTStEBWCQFK4eGeUzUMHzYe7UwfkveA2kGSY7Mviqe6
IWGhWGQxDZsqwxkpnZcfY98kN0Alc/7LcfougqFrE90c22X41q0uSefF26HFJ2be
N2OR/rHQhFL6g+6kuHYhI0CL1JwyyWwbPsGsPAQMeXKwow3iFa/+fzf4IGr4BR4g
FAi7cgE5ORXEacUd1Z4p0v7X8ihwFxA4DH0ezumQ6TMTXiWYlptTwNUj90dPXyGe
JjU/ejOJ+aplDQnIL+nue0o8V8lQOQ1rkTBR+FjEDJuHx7r6AMLdBMgZKPuz4ptw
bqzMP1AYCqOxqbdo3Q==
-----END CERTIFICATE-----
