Certificate:
    Data:
        Version: 3 (0x2)
        Serial Number: 1 (0x1)
        Signature Algorithm: sha1WithRSAEncryption
        Issuer: C=DE, O=EUMEL Suite, OU=EUMEL Suite, CN=EUMEL Suite Root CA
        Validity
            Not Before: Jun 25 15:31:48 2021 GMT
            Not After : Dec 31 23:59:59 2030 GMT
        Subject: C=DE, O=EUMEL Suite, OU=EUMEL Suite, CN=EUMEL Suite Root CA
        Subject Public Key Info:
            Public Key Algorithm: rsaEncryption
                RSA Public-Key: (4096 bit)
                Modulus:
                    00:c5:f9:05:55:c0:71:c3:8a:7f:f3:3a:8d:49:eb:
                    7b:75:1b:a7:94:f8:1a:3c:65:10:bc:14:ba:96:df:
                    30:1e:70:45:e1:cb:e8:4c:98:42:83:f2:db:9b:86:
                    68:37:e2:26:ff:77:c6:87:e5:bb:3f:b2:19:6b:2b:
                    2b:99:e6:1b:6a:ce:8f:4b:53:4f:9c:cf:f1:0f:fc:
                    74:45:b2:0e:f8:ad:5e:bb:a6:13:a5:c5:32:42:47:
                    b2:bf:8d:25:65:4a:02:77:9c:f7:31:33:f9:73:4b:
                    9a:24:d4:0a:3f:55:0e:94:a0:ee:be:76:ad:2a:9d:
                    21:c7:aa:be:74:6f:3c:d0:f7:97:49:b4:55:98:25:
                    4e:e1:53:26:5c:f8:dd:e2:0e:e8:c5:5a:5d:0c:57:
                    78:df:4b:8f:7e:2b:bf:24:3c:b6:bd:85:b6:f2:5c:
                    06:6b:2b:2e:80:43:11:f8:15:b4:aa:2f:46:50:67:
                    c5:ed:c6:f9:68:54:25:b1:fd:d4:c1:e2:b2:aa:bf:
                    98:0b:7d:4e:f3:e7:dc:cb:75:45:59:91:8c:3e:57:
                    08:f2:68:c8:06:4e:2d:7e:58:da:91:05:94:fa:69:
                    5f:d5:3d:85:7f:e2:f1:e6:56:54:47:a0:c1:3e:8c:
                    5f:da:d4:23:d0:cb:ba:77:b0:b5:59:50:ea:f9:e0:
                    74:af:44:12:34:2f:ea:db:ee:72:71:01:96:ce:c2:
                    71:06:6e:f0:c3:fb:c0:1c:37:de:3c:b3:6f:ad:99:
                    cc:e4:01:75:b2:a6:4e:be:88:d1:03:f7:1b:b8:7c:
                    00:0f:14:1c:32:04:38:ef:07:a5:75:91:59:29:dd:
                    b4:4c:e1:13:a0:28:d4:42:2e:08:a2:30:2f:db:e5:
                    36:18:94:7c:91:57:45:00:c9:f1:41:82:ea:63:a5:
                    d3:85:e0:97:1a:18:b8:75:55:8e:95:ac:62:ee:6e:
                    b6:a3:e7:3b:88:97:bc:27:18:59:99:08:22:3f:56:
                    10:8e:26:4e:35:93:41:1d:6b:34:d0:a1:e8:47:15:
                    f5:60:a5:4e:96:a6:4d:da:85:da:72:f8:39:7f:64:
                    25:35:1f:cc:e6:7d:01:74:3a:d9:ad:d6:f3:50:0b:
                    e3:ba:96:0c:23:b4:73:8e:bb:11:85:a3:15:3e:46:
                    04:86:96:33:0b:64:19:e8:5f:0e:4c:55:d4:71:48:
                    00:81:98:bd:03:e9:7b:d4:2c:2f:9b:1a:0b:99:4e:
                    d0:4b:31:81:ad:67:77:0f:d5:b6:a5:e2:d8:65:6e:
                    2e:53:f0:94:f0:de:88:ec:3a:c6:34:fb:a1:48:bf:
                    f6:e7:73:31:b4:d0:b3:53:2d:39:b3:c0:53:c4:b8:
                    f3:b4:95
                Exponent: 65537 (0x10001)
        X509v3 extensions:
            X509v3 Key Usage: critical
                Certificate Sign, CRL Sign
            X509v3 Basic Constraints: critical
                CA:TRUE
            X509v3 Subject Key Identifier: 
                55:C8:73:0E:F5:EE:F9:59:B2:B6:44:CD:D9:45:CB:72:4D:0D:B2:0B
            X509v3 Authority Key Identifier: 
                keyid:55:C8:73:0E:F5:EE:F9:59:B2:B6:44:CD:D9:45:CB:72:4D:0D:B2:0B

    Signature Algorithm: sha1WithRSAEncryption
         4a:a6:11:f3:00:9e:66:b9:eb:88:5a:8a:8f:8f:6b:e4:2f:b2:
         a2:99:9f:c9:3a:e6:ce:65:0b:69:c0:8c:50:92:4e:77:ae:46:
         28:53:6b:01:37:20:12:5c:59:2d:3a:0f:02:92:b3:7f:35:a9:
         4f:03:68:e6:07:3d:b6:95:46:4c:41:c1:c1:f9:7f:9c:d9:99:
         a0:57:8d:8a:ed:94:f0:22:95:d8:12:e2:cd:03:cc:7f:19:a0:
         6c:60:0b:ab:10:54:ca:34:f0:2c:b1:df:14:61:43:79:09:e5:
         79:07:f3:05:47:af:82:dc:66:e2:19:ab:ce:97:5f:ff:c0:f4:
         cb:13:67:f4:86:00:3b:46:15:46:91:5b:70:38:c3:d7:10:cc:
         b4:d2:bb:3e:8d:89:25:cd:3f:8d:0b:12:99:c2:ff:be:3d:43:
         ec:aa:d1:e8:b5:9d:ae:50:ac:f7:cc:86:de:1d:89:dc:bf:ae:
         c8:af:27:42:97:21:55:cf:d3:86:1a:8d:64:44:37:22:ed:0e:
         09:15:78:9b:34:a3:22:46:95:56:d6:d0:5c:f2:8b:4a:e9:fe:
         78:16:1c:bd:ad:d5:f5:79:74:11:f8:3c:58:91:15:92:6b:a5:
         16:c3:69:bc:94:20:0e:ec:fd:3a:6f:a1:bd:74:8e:81:95:a8:
         f2:eb:64:dc:84:2b:46:ee:45:2b:23:eb:ff:78:c2:1f:f3:47:
         eb:58:be:7e:bf:7f:46:10:30:dd:34:27:ce:2b:08:f1:10:8f:
         b3:19:e4:e9:25:58:d8:e9:cc:d7:ba:d3:f1:84:dc:fc:5a:68:
         29:81:99:b9:9a:ec:ae:f3:96:6f:d3:08:3b:f4:9c:8a:42:e8:
         3b:cc:1d:5f:94:b3:65:b5:3e:01:33:59:90:8b:d2:6d:51:d9:
         44:a9:43:34:eb:10:8f:e1:11:78:24:1d:a8:2b:75:69:79:ab:
         1e:46:3b:8c:f4:50:98:c0:06:37:d9:99:35:d8:71:56:18:b7:
         9b:83:e2:47:8f:16:73:4d:6d:00:0b:c9:9d:de:42:3e:3a:6f:
         00:94:9c:2c:3f:f9:d8:e8:ee:10:dd:21:d0:2c:31:6e:5f:a3:
         77:63:fb:f5:e9:00:fc:55:07:47:78:b8:9d:d2:b9:1f:be:52:
         b7:11:27:6d:40:20:c4:c5:31:b6:51:53:2c:02:2a:95:5e:5e:
         5b:2c:d7:37:e1:ef:31:26:14:23:79:3f:f2:90:91:90:24:d0:
         ae:89:7b:c5:12:76:9a:b3:6e:c7:34:56:2e:bf:af:6f:a1:7e:
         42:57:56:c2:54:7d:a2:46:22:7a:44:29:f6:0d:14:5b:63:88:
         3c:22:9f:cf:f8:ed:38:27
-----BEGIN CERTIFICATE-----
MIIFjDCCA3SgAwIBAgIBATANBgkqhkiG9w0BAQUFADBXMQswCQYDVQQGEwJERTEU
MBIGA1UECgwLRVVNRUwgU3VpdGUxFDASBgNVBAsMC0VVTUVMIFN1aXRlMRwwGgYD
VQQDDBNFVU1FTCBTdWl0ZSBSb290IENBMB4XDTIxMDYyNTE1MzE0OFoXDTMwMTIz
MTIzNTk1OVowVzELMAkGA1UEBhMCREUxFDASBgNVBAoMC0VVTUVMIFN1aXRlMRQw
EgYDVQQLDAtFVU1FTCBTdWl0ZTEcMBoGA1UEAwwTRVVNRUwgU3VpdGUgUm9vdCBD
QTCCAiIwDQYJKoZIhvcNAQEBBQADggIPADCCAgoCggIBAMX5BVXAccOKf/M6jUnr
e3Ubp5T4GjxlELwUupbfMB5wReHL6EyYQoPy25uGaDfiJv93xofluz+yGWsrK5nm
G2rOj0tTT5zP8Q/8dEWyDvitXrumE6XFMkJHsr+NJWVKAnec9zEz+XNLmiTUCj9V
DpSg7r52rSqdIceqvnRvPND3l0m0VZglTuFTJlz43eIO6MVaXQxXeN9Lj34rvyQ8
tr2FtvJcBmsrLoBDEfgVtKovRlBnxe3G+WhUJbH91MHisqq/mAt9TvPn3Mt1RVmR
jD5XCPJoyAZOLX5Y2pEFlPppX9U9hX/i8eZWVEegwT6MX9rUI9DLunewtVlQ6vng
dK9EEjQv6tvucnEBls7CcQZu8MP7wBw33jyzb62ZzOQBdbKmTr6I0QP3G7h8AA8U
HDIEOO8HpXWRWSndtEzhE6Ao1EIuCKIwL9vlNhiUfJFXRQDJ8UGC6mOl04XglxoY
uHVVjpWsYu5utqPnO4iXvCcYWZkIIj9WEI4mTjWTQR1rNNCh6EcV9WClTpamTdqF
2nL4OX9kJTUfzOZ9AXQ62a3W81AL47qWDCO0c467EYWjFT5GBIaWMwtkGehfDkxV
1HFIAIGYvQPpe9QsL5saC5lO0Esxga1ndw/VtqXi2GVuLlPwlPDeiOw6xjT7oUi/
9udzMbTQs1MtObPAU8S487SVAgMBAAGjYzBhMA4GA1UdDwEB/wQEAwIBBjAPBgNV
HRMBAf8EBTADAQH/MB0GA1UdDgQWBBRVyHMO9e75WbK2RM3ZRctyTQ2yCzAfBgNV
HSMEGDAWgBRVyHMO9e75WbK2RM3ZRctyTQ2yCzANBgkqhkiG9w0BAQUFAAOCAgEA
SqYR8wCeZrnriFqKj49r5C+yopmfyTrmzmULacCMUJJOd65GKFNrATcgElxZLToP
ApKzfzWpTwNo5gc9tpVGTEHBwfl/nNmZoFeNiu2U8CKV2BLizQPMfxmgbGALqxBU
yjTwLLHfFGFDeQnleQfzBUevgtxm4hmrzpdf/8D0yxNn9IYAO0YVRpFbcDjD1xDM
tNK7Po2JJc0/jQsSmcL/vj1D7KrR6LWdrlCs98yG3h2J3L+uyK8nQpchVc/ThhqN
ZEQ3Iu0OCRV4mzSjIkaVVtbQXPKLSun+eBYcva3V9Xl0Efg8WJEVkmulFsNpvJQg
Duz9Om+hvXSOgZWo8utk3IQrRu5FKyPr/3jCH/NH61i+fr9/RhAw3TQnzisI8RCP
sxnk6SVY2OnM17rT8YTc/FpoKYGZuZrsrvOWb9MIO/ScikLoO8wdX5SzZbU+ATNZ
kIvSbVHZRKlDNOsQj+EReCQdqCt1aXmrHkY7jPRQmMAGN9mZNdhxVhi3m4PiR48W
c01tAAvJnd5CPjpvAJScLD/52OjuEN0h0Cwxbl+jd2P79ekA/FUHR3i4ndK5H75S
txEnbUAgxMUxtlFTLAIqlV5eWyzXN+HvMSYUI3k/8pCRkCTQrol7xRJ2mrNuxzRW
Lr+vb6F+QldWwlR9okYiekQp9g0UW2OIPCKfz/jtOCc=
-----END CERTIFICATE-----
